target datalayout = "e-m:e-p270:32:32-p271:32:32-p272:64:64-i64:64-i128:128-f80:128-n8:16:32:64-S128"
target triple = "x86_64-pc-linux-gnu"

%union.anon = type { %struct.QTailQLink }
%struct.QTailQLink = type { ptr, ptr }
%struct.QemuMutex = type { %union.pthread_mutex_t, i8 }
%union.pthread_mutex_t = type { %struct.__pthread_mutex_s }
%struct.__pthread_mutex_s = type { i32, i32, i32, i32, i32, i16, i16, %struct.__pthread_internal_list }
%struct.__pthread_internal_list = type { ptr, ptr }
%struct.BlockDriverState = type { i32, i8, i8, i8, i8, i8, ptr, ptr, ptr, %struct.anon, i8, [4096 x i8], [4096 x i8], [4096 x i8], [16 x i8], ptr, [4096 x i8], %struct.BlockLimits, i32, i32, i32, i32, [32 x i8], %union.anon.0, %union.anon.1, %union.anon.2, i32, [15 x %struct.anon.3], ptr, %struct.anon.4, ptr, ptr, %struct.anon.5, ptr, ptr, i32, ptr, i64, i64, %struct.QemuMutex, %struct.anon.6, %struct.Stat64, i32, i32, i32, i32, i32, i32, %struct.QemuMutex, %struct.anon.7, %struct.CoQueue, i8, i32, i8, %struct.CoMutex, ptr, ptr }
%struct.anon = type { ptr }
%struct.BlockLimits = type { i32, i64, i32, i64, i32, i32, i32, i64, i32, i64, i64, i32, i8, i32, i32, i32, i32, i32, i32, i32 }
%union.anon.0 = type { %struct.QTailQLink }
%union.anon.1 = type { %struct.QTailQLink }
%union.anon.2 = type { %struct.QTailQLink }
%struct.anon.3 = type { ptr }
%struct.anon.4 = type { ptr }
%struct.anon.5 = type { ptr }
%struct.anon.6 = type { ptr }
%struct.Stat64 = type { i64 }
%struct.anon.7 = type { ptr }
%struct.CoQueue = type { %struct.anon.8 }
%struct.anon.8 = type { ptr, ptr }
%struct.CoMutex = type { i32, ptr, %struct.anon.9, %struct.anon.9, i32, i32, ptr }
%struct.anon.9 = type { ptr }
%struct.GraphLockableMainloop = type {}

@monitor_bdrv_states = dso_local global %union.anon { %struct.QTailQLink { ptr null, ptr @monitor_bdrv_states } }, align 8
@.str = private unnamed_addr constant [22 x i8] c"qemu_in_main_thread()\00", align 1
@.str.1 = private unnamed_addr constant [19 x i8] c"../qemu/blockdev.c\00", align 1
@.str.123 = private unnamed_addr constant [40 x i8] c"Failed to find node with node-name='%s'\00", align 1
@__PRETTY_FUNCTION__.qmp_blockdev_del = private unnamed_addr constant [46 x i8] c"void qmp_blockdev_del(const char *, Error **)\00", align 1
@__func__.qmp_blockdev_del = private unnamed_addr constant [17 x i8] c"qmp_blockdev_del\00", align 1
@.str.124 = private unnamed_addr constant [18 x i8] c"Node %s is in use\00", align 1
@.str.125 = private unnamed_addr constant [36 x i8] c"Node %s is not owned by the monitor\00", align 1
@.str.126 = private unnamed_addr constant [26 x i8] c"Block device %s is in use\00", align 1

; Function Attrs: inlinehint nounwind sspstrong uwtable
define internal void @graph_lockable_auto_unlock_mainloop(ptr noundef %0) #5 {
  %2 = alloca ptr, align 8
  store ptr %0, ptr %2, align 8
  call void @bdrv_graph_rdunlock_main_loop()
  ret void
}

; Function Attrs: inlinehint nounwind sspstrong uwtable
define internal void @glib_autoptr_clear_GraphLockableMainloop(ptr noundef %0) #5 {
  %2 = alloca ptr, align 8
  store ptr %0, ptr %2, align 8
  %3 = load ptr, ptr %2, align 8
  %4 = icmp ne ptr %3, null
  br i1 %4, label %5, label %7

5:                                                ; preds = %1
  %6 = load ptr, ptr %2, align 8
  call void @graph_lockable_auto_unlock_mainloop(ptr noundef %6)
  br label %7

7:                                                ; preds = %5, %1
  ret void
}

; Function Attrs: inlinehint nounwind sspstrong uwtable
define internal void @glib_autoptr_cleanup_GraphLockableMainloop(ptr noundef %0) #5 {
  %2 = alloca ptr, align 8
  store ptr %0, ptr %2, align 8
  %3 = load ptr, ptr %2, align 8
  %4 = load ptr, ptr %3, align 8
  call void @glib_autoptr_clear_GraphLockableMainloop(ptr noundef %4)
  ret void
}

; Function Attrs: inlinehint nounwind sspstrong uwtable
define internal ptr @graph_lockable_auto_lock_mainloop(ptr noundef %0) #5 {
  %2 = alloca ptr, align 8
  store ptr %0, ptr %2, align 8
  call void @bdrv_graph_rdlock_main_loop()
  %3 = load ptr, ptr %2, align 8
  ret ptr %3
}

; Function Attrs: nounwind sspstrong uwtable
define dso_local void @qmp_blockdev_del(ptr noundef %0, ptr noundef %1) #0 {
  %3 = alloca ptr, align 8
  %4 = alloca ptr, align 8
  %5 = alloca ptr, align 8
  %6 = alloca ptr, align 8
  %7 = alloca %struct.GraphLockableMainloop, align 1
  %8 = alloca i32, align 4
  store ptr %0, ptr %3, align 8
  store ptr %1, ptr %4, align 8
  call void @llvm.lifetime.start.p0(i64 8, ptr %5) #16
  store ptr null, ptr %5, align 8, !annotation !4
  br label %9

9:                                                ; preds = %2
  %10 = call zeroext i1 @qemu_in_main_thread()
  br i1 %10, label %11, label %12

11:                                               ; preds = %9
  br label %13

12:                                               ; preds = %9
  call void @__assert_fail(ptr noundef @.str, ptr noundef @.str.1, i32 noundef 3441, ptr noundef @__PRETTY_FUNCTION__.qmp_blockdev_del) #15
  unreachable

13:                                               ; preds = %11
  br label %14

14:                                               ; preds = %13
  br label %15

15:                                               ; preds = %14
  call void @llvm.lifetime.start.p0(i64 8, ptr %6) #16
  %16 = call ptr @graph_lockable_auto_lock_mainloop(ptr noundef %7)
  store ptr %16, ptr %6, align 8
  %17 = load ptr, ptr %3, align 8
  %18 = call ptr @bdrv_find_node(ptr noundef %17)
  store ptr %18, ptr %5, align 8
  %19 = load ptr, ptr %5, align 8
  %20 = icmp ne ptr %19, null
  br i1 %20, label %24, label %21

21:                                               ; preds = %15
  %22 = load ptr, ptr %4, align 8
  %23 = load ptr, ptr %3, align 8
  call void (ptr, ptr, i32, ptr, ptr, ...) @error_setg_internal(ptr noundef %22, ptr noundef @.str.1, i32 noundef 3446, ptr noundef @__func__.qmp_blockdev_del, ptr noundef @.str.123, ptr noundef %23)
  store i32 1, ptr %8, align 4
  br label %96

24:                                               ; preds = %15
  %25 = load ptr, ptr %5, align 8
  %26 = call zeroext i1 @bdrv_has_blk(ptr noundef %25)
  br i1 %26, label %27, label %30

27:                                               ; preds = %24
  %28 = load ptr, ptr %4, align 8
  %29 = load ptr, ptr %3, align 8
  call void (ptr, ptr, i32, ptr, ptr, ...) @error_setg_internal(ptr noundef %28, ptr noundef @.str.1, i32 noundef 3450, ptr noundef @__func__.qmp_blockdev_del, ptr noundef @.str.124, ptr noundef %29)
  store i32 1, ptr %8, align 4
  br label %96

30:                                               ; preds = %24
  %31 = load ptr, ptr %5, align 8
  %32 = load ptr, ptr %4, align 8
  %33 = call zeroext i1 @bdrv_op_is_blocked(ptr noundef %31, i32 noundef 5, ptr noundef %32)
  br i1 %33, label %34, label %35

34:                                               ; preds = %30
  store i32 1, ptr %8, align 4
  br label %96

35:                                               ; preds = %30
  %36 = load ptr, ptr %5, align 8
  %37 = getelementptr inbounds nuw %struct.BlockDriverState, ptr %36, i32 0, i32 25
  %38 = getelementptr inbounds nuw %struct.QTailQLink, ptr %37, i32 0, i32 1
  %39 = load ptr, ptr %38, align 8
  %40 = icmp ne ptr %39, null
  br i1 %40, label %46, label %41

41:                                               ; preds = %35
  %42 = load ptr, ptr %4, align 8
  %43 = load ptr, ptr %5, align 8
  %44 = getelementptr inbounds nuw %struct.BlockDriverState, ptr %43, i32 0, i32 22
  %45 = getelementptr inbounds [32 x i8], ptr %44, i64 0, i64 0
  call void (ptr, ptr, i32, ptr, ptr, ...) @error_setg_internal(ptr noundef %42, ptr noundef @.str.1, i32 noundef 3460, ptr noundef @__func__.qmp_blockdev_del, ptr noundef @.str.125, ptr noundef %45)
  store i32 1, ptr %8, align 4
  br label %96

46:                                               ; preds = %35
  %47 = load ptr, ptr %5, align 8
  %48 = getelementptr inbounds nuw %struct.BlockDriverState, ptr %47, i32 0, i32 26
  %49 = load i32, ptr %48, align 8
  %50 = icmp sgt i32 %49, 1
  br i1 %50, label %51, label %55

51:                                               ; preds = %46
  %52 = load ptr, ptr %4, align 8
  %53 = load ptr, ptr %5, align 8
  %54 = call ptr @bdrv_get_device_or_node_name(ptr noundef %53)
  call void (ptr, ptr, i32, ptr, ptr, ...) @error_setg_internal(ptr noundef %52, ptr noundef @.str.1, i32 noundef 3466, ptr noundef @__func__.qmp_blockdev_del, ptr noundef @.str.126, ptr noundef %54)
  store i32 1, ptr %8, align 4
  br label %96

55:                                               ; preds = %46
  br label %56

56:                                               ; preds = %55
  %57 = load ptr, ptr %5, align 8
  %58 = getelementptr inbounds nuw %struct.BlockDriverState, ptr %57, i32 0, i32 25
  %59 = load ptr, ptr %58, align 8
  %60 = icmp ne ptr %59, null
  br i1 %60, label %61, label %71

61:                                               ; preds = %56
  %62 = load ptr, ptr %5, align 8
  %63 = getelementptr inbounds nuw %struct.BlockDriverState, ptr %62, i32 0, i32 25
  %64 = getelementptr inbounds nuw %struct.QTailQLink, ptr %63, i32 0, i32 1
  %65 = load ptr, ptr %64, align 8
  %66 = load ptr, ptr %5, align 8
  %67 = getelementptr inbounds nuw %struct.BlockDriverState, ptr %66, i32 0, i32 25
  %68 = load ptr, ptr %67, align 8
  %69 = getelementptr inbounds nuw %struct.BlockDriverState, ptr %68, i32 0, i32 25
  %70 = getelementptr inbounds nuw %struct.QTailQLink, ptr %69, i32 0, i32 1
  store ptr %65, ptr %70, align 8
  br label %76

71:                                               ; preds = %56
  %72 = load ptr, ptr %5, align 8
  %73 = getelementptr inbounds nuw %struct.BlockDriverState, ptr %72, i32 0, i32 25
  %74 = getelementptr inbounds nuw %struct.QTailQLink, ptr %73, i32 0, i32 1
  %75 = load ptr, ptr %74, align 8
  store ptr %75, ptr getelementptr inbounds nuw (%struct.QTailQLink, ptr @monitor_bdrv_states, i32 0, i32 1), align 8
  br label %76

76:                                               ; preds = %71, %61
  %77 = load ptr, ptr %5, align 8
  %78 = getelementptr inbounds nuw %struct.BlockDriverState, ptr %77, i32 0, i32 25
  %79 = load ptr, ptr %78, align 8
  %80 = load ptr, ptr %5, align 8
  %81 = getelementptr inbounds nuw %struct.BlockDriverState, ptr %80, i32 0, i32 25
  %82 = getelementptr inbounds nuw %struct.QTailQLink, ptr %81, i32 0, i32 1
  %83 = load ptr, ptr %82, align 8
  %84 = getelementptr inbounds nuw %struct.QTailQLink, ptr %83, i32 0, i32 0
  store ptr %79, ptr %84, align 8
  %85 = load ptr, ptr %5, align 8
  %86 = getelementptr inbounds nuw %struct.BlockDriverState, ptr %85, i32 0, i32 25
  %87 = getelementptr inbounds nuw %struct.QTailQLink, ptr %86, i32 0, i32 1
  store ptr null, ptr %87, align 8
  %88 = load ptr, ptr %5, align 8
  %89 = getelementptr inbounds nuw %struct.BlockDriverState, ptr %88, i32 0, i32 25
  %90 = getelementptr inbounds nuw %struct.QTailQLink, ptr %89, i32 0, i32 0
  store ptr null, ptr %90, align 8
  %91 = load ptr, ptr %5, align 8
  %92 = getelementptr inbounds nuw %struct.BlockDriverState, ptr %91, i32 0, i32 25
  store ptr null, ptr %92, align 8
  br label %93

93:                                               ; preds = %76
  br label %94

94:                                               ; preds = %93
  %95 = load ptr, ptr %5, align 8
  call void @bdrv_unref(ptr noundef %95)
  store i32 0, ptr %8, align 4
  br label %96

96:                                               ; preds = %94, %51, %41, %34, %27, %21
  call void @glib_autoptr_cleanup_GraphLockableMainloop(ptr noundef %6)
  call void @llvm.lifetime.end.p0(i64 8, ptr %6) #16
  call void @llvm.lifetime.end.p0(i64 8, ptr %5) #16
  %97 = load i32, ptr %8, align 4
  switch i32 %97, label %99 [
    i32 0, label %98
    i32 1, label %98
  ]

98:                                               ; preds = %96, %96
  ret void

99:                                               ; preds = %96
  unreachable
}