; Function Attrs: nounwind sspstrong uwtable
define dso_local void @qmp_blockdev_del(ptr noundef %0, ptr noundef %1) local_unnamed_addr #0 {
  %3 = tail call zeroext i1 @qemu_in_main_thread() #14
  br i1 %3, label %5, label %4

4:                                                ; preds = %2
  tail call void @__assert_fail(ptr noundef nonnull @.str, ptr noundef nonnull @.str.1, i32 noundef 3441, ptr noundef nonnull @__PRETTY_FUNCTION__.qmp_blockdev_del) #15
  unreachable

5:                                                ; preds = %2
  tail call void @bdrv_graph_rdlock_main_loop() #14
  %6 = tail call ptr @bdrv_find_node(ptr noundef %0) #14
  %.not = icmp eq ptr %6, null
  br i1 %.not, label %7, label %8

7:                                                ; preds = %5
  tail call void (ptr, ptr, i32, ptr, ptr, ...) @error_setg_internal(ptr noundef %1, ptr noundef nonnull @.str.1, i32 noundef 3446, ptr noundef nonnull @__func__.qmp_blockdev_del, ptr noundef nonnull @.str.123, ptr noundef %0) #14
  br label %glib_autoptr_cleanup_GraphLockableMainloop.exit

8:                                                ; preds = %5
  %9 = tail call zeroext i1 @bdrv_has_blk(ptr noundef nonnull %6) #14
  br i1 %9, label %10, label %11

10:                                               ; preds = %8
  tail call void (ptr, ptr, i32, ptr, ptr, ...) @error_setg_internal(ptr noundef %1, ptr noundef nonnull @.str.1, i32 noundef 3450, ptr noundef nonnull @__func__.qmp_blockdev_del, ptr noundef nonnull @.str.124, ptr noundef %0) #14
  br label %glib_autoptr_cleanup_GraphLockableMainloop.exit

11:                                               ; preds = %8
  %12 = tail call zeroext i1 @bdrv_op_is_blocked(ptr noundef nonnull %6, i32 noundef 5, ptr noundef %1) #14
  br i1 %12, label %glib_autoptr_cleanup_GraphLockableMainloop.exit, label %13

13:                                               ; preds = %11
  %14 = getelementptr inbounds nuw i8, ptr %6, i64 16664
  %15 = getelementptr inbounds nuw i8, ptr %6, i64 16672
  %16 = load ptr, ptr %15, align 8
  %.not27 = icmp eq ptr %16, null
  br i1 %.not27, label %17, label %19

17:                                               ; preds = %13
  %18 = getelementptr inbounds nuw i8, ptr %6, i64 16600
  tail call void (ptr, ptr, i32, ptr, ptr, ...) @error_setg_internal(ptr noundef %1, ptr noundef nonnull @.str.1, i32 noundef 3460, ptr noundef nonnull @__func__.qmp_blockdev_del, ptr noundef nonnull @.str.125, ptr noundef nonnull %18) #14
  br label %glib_autoptr_cleanup_GraphLockableMainloop.exit

19:                                               ; preds = %13
  %20 = getelementptr inbounds nuw i8, ptr %6, i64 16680
  %21 = load i32, ptr %20, align 8
  %22 = icmp sgt i32 %21, 1
  br i1 %22, label %23, label %25

23:                                               ; preds = %19
  %24 = tail call ptr @bdrv_get_device_or_node_name(ptr noundef nonnull %6) #14
  tail call void (ptr, ptr, i32, ptr, ptr, ...) @error_setg_internal(ptr noundef %1, ptr noundef nonnull @.str.1, i32 noundef 3466, ptr noundef nonnull @__func__.qmp_blockdev_del, ptr noundef nonnull @.str.126, ptr noundef %24) #14
  br label %glib_autoptr_cleanup_GraphLockableMainloop.exit

25:                                               ; preds = %19
  %26 = load ptr, ptr %14, align 8
  %.not28 = icmp eq ptr %26, null
  br i1 %.not28, label %29, label %27

27:                                               ; preds = %25
  %28 = getelementptr inbounds nuw i8, ptr %26, i64 16672
  store ptr %16, ptr %28, align 8
  %.pre = load ptr, ptr %14, align 8
  %.pre29 = load ptr, ptr %15, align 8
  br label %30

29:                                               ; preds = %25
  store ptr %16, ptr getelementptr inbounds nuw (i8, ptr @monitor_bdrv_states, i64 8), align 8
  br label %30

30:                                               ; preds = %29, %27
  %31 = phi ptr [ %16, %29 ], [ %.pre29, %27 ]
  %32 = phi ptr [ null, %29 ], [ %.pre, %27 ]
  store ptr %32, ptr %31, align 8
  tail call void @llvm.memset.p0.i64(ptr noundef nonnull align 8 dereferenceable(16) %14, i8 0, i64 16, i1 false)
  tail call void @bdrv_unref(ptr noundef nonnull %6) #14
  br label %glib_autoptr_cleanup_GraphLockableMainloop.exit

glib_autoptr_cleanup_GraphLockableMainloop.exit:  ; preds = %11, %30, %23, %17, %10, %7
  tail call void @bdrv_graph_rdunlock_main_loop() #14
  ret void
}